; Function Attrs: mustprogress uwtable
define noundef double @_ZN4pkpy17TokenDeserializer10read_floatEc(ptr noundef nonnull align 8 captures(none) dereferenceable(16) %0, i8 noundef signext %1) local_unnamed_addr #5 align 2 personality ptr @__gxx_personality_v0 {
  %3 = alloca ptr, align 8
  %4 = alloca %"struct.std::__cxx11::basic_string<char>::__sv_wrapper", align 8
  %5 = alloca %"class.std::__cxx11::basic_string", align 8
  %6 = alloca %"class.std::allocator.91", align 1
  %7 = load ptr, ptr %0, align 8
  %8 = load i8, ptr %7, align 1
  %.not3.i = icmp eq i8 %8, %1
  br i1 %.not3.i, label %_ZN4pkpy17TokenDeserializer11read_stringEc.exit, label %.lr.ph.i

.lr.ph.i:                                         ; preds = %2, %.lr.ph.i
  %9 = phi ptr [ %10, %.lr.ph.i ], [ %7, %2 ]
  %10 = getelementptr inbounds nuw i8, ptr %9, i64 1
  store ptr %10, ptr %0, align 8
  %11 = load i8, ptr %10, align 1
  %.not.i = icmp eq i8 %11, %1
  br i1 %.not.i, label %_ZN4pkpy17TokenDeserializer11read_stringEc.exit, label %.lr.ph.i, !llvm.loop !333

_ZN4pkpy17TokenDeserializer11read_stringEc.exit:  ; preds = %.lr.ph.i, %2
  %.lcssa.i = phi ptr [ %7, %2 ], [ %10, %.lr.ph.i ]
  %12 = ptrtoint ptr %.lcssa.i to i64
  %13 = ptrtoint ptr %7 to i64
  %14 = sub i64 %12, %13
  %15 = getelementptr inbounds nuw i8, ptr %.lcssa.i, i64 1
  store ptr %15, ptr %0, align 8
  call void @_ZNSaIcEC1Ev(ptr noundef nonnull align 1 dereferenceable(1) %6) #36
  call void @llvm.lifetime.start.p0(i64 16, ptr nonnull %4)
  %16 = call { i64, ptr } @_ZNSt7__cxx1112basic_stringIcSt11char_traitsIcESaIcEE17_S_to_string_viewESt17basic_string_viewIcS2_E(i64 %14, ptr nonnull %7) #36
  %17 = extractvalue { i64, ptr } %16, 0
  %18 = extractvalue { i64, ptr } %16, 1
  call void @_ZNSt7__cxx1112basic_stringIcSt11char_traitsIcESaIcEE12__sv_wrapperC1ESt17basic_string_viewIcS2_E(ptr noundef nonnull align 8 dereferenceable(16) %4, i64 %17, ptr %18) #36
  %19 = load i64, ptr %4, align 8
  %20 = getelementptr inbounds nuw i8, ptr %4, i64 8
  %21 = load ptr, ptr %20, align 8
  invoke void @_ZNSt7__cxx1112basic_stringIcSt11char_traitsIcESaIcEEC2ENS4_12__sv_wrapperERKS3_(ptr noundef nonnull align 8 dereferenceable(32) %5, i64 %19, ptr %21, ptr noundef nonnull align 1 dereferenceable(1) %6)
          to label %22 unwind label %41

22:                                               ; preds = %_ZN4pkpy17TokenDeserializer11read_stringEc.exit
  call void @llvm.lifetime.end.p0(i64 16, ptr nonnull %4)
  %23 = call noundef ptr @_ZNKSt7__cxx1112basic_stringIcSt11char_traitsIcESaIcEE5c_strEv(ptr noundef nonnull align 8 dereferenceable(32) %5) #36
  call void @llvm.lifetime.start.p0(i64 8, ptr nonnull %3)
  %24 = tail call ptr @__errno_location() #40
  %25 = load i32, ptr %24, align 4
  store i32 0, ptr %24, align 4
  %26 = call noundef double @strtod(ptr noundef %23, ptr noundef nonnull %3)
  %27 = load ptr, ptr %3, align 8
  %28 = icmp eq ptr %27, %23
  br i1 %28, label %29, label %36

29:                                               ; preds = %22
  invoke void @_ZSt24__throw_invalid_argumentPKc(ptr noundef nonnull @.str.144) #35
          to label %30 unwind label %31

30:                                               ; preds = %29
  unreachable

31:                                               ; preds = %.critedge.i.i, %29
  %32 = landingpad { ptr, i32 }
          cleanup
  %33 = load i32, ptr %24, align 4
  %34 = icmp eq i32 %33, 0
  br i1 %34, label %35, label %.body

35:                                               ; preds = %31
  store i32 %25, ptr %24, align 4
  br label %.body

36:                                               ; preds = %22
  %37 = load i32, ptr %24, align 4
  switch i32 %37, label %40 [
    i32 34, label %.critedge.i.i
    i32 0, label %39
  ]

.critedge.i.i:                                    ; preds = %36
  invoke void @_ZSt20__throw_out_of_rangePKc(ptr noundef nonnull @.str.144) #35
          to label %38 unwind label %31

38:                                               ; preds = %.critedge.i.i
  unreachable

39:                                               ; preds = %36
  store i32 %25, ptr %24, align 4
  br label %40

40:                                               ; preds = %36, %39
  call void @llvm.lifetime.end.p0(i64 8, ptr nonnull %3)
  call void @_ZNSt7__cxx1112basic_stringIcSt11char_traitsIcESaIcEED1Ev(ptr noundef nonnull align 8 dereferenceable(32) %5) #36
  call void @_ZNSaIcED1Ev(ptr noundef nonnull align 1 dereferenceable(1) %6) #36
  ret double %26

41:                                               ; preds = %_ZN4pkpy17TokenDeserializer11read_stringEc.exit
  %42 = landingpad { ptr, i32 }
          cleanup
  br label %43

.body:                                            ; preds = %31, %35
  call void @_ZNSt7__cxx1112basic_stringIcSt11char_traitsIcESaIcEED1Ev(ptr noundef nonnull align 8 dereferenceable(32) %5) #36
  br label %43

43:                                               ; preds = %.body, %41
  %.pn = phi { ptr, i32 } [ %32, %.body ], [ %42, %41 ]
  call void @_ZNSaIcED1Ev(ptr noundef nonnull align 1 dereferenceable(1) %6) #36
  resume { ptr, i32 } %.pn
}